target datalayout = "e-m:e-p270:32:32-p271:32:32-p272:64:64-i64:64-i128:128-f80:128-n8:16:32:64-S128"
target triple = "x86_64-pc-linux-gnu"

%"class.cv::Matx" = type { [9 x double] }
%"class.cv::Mat" = type { i32, i32, i32, i32, ptr, ptr, ptr, ptr, ptr, ptr, %"struct.cv::MatSize", %"struct.cv::MatStep" }
%"struct.cv::MatSize" = type { ptr }
%"struct.cv::MatStep" = type { ptr, [2 x i64] }
%"class.cv::_InputArray" = type { i32, ptr, %"class.cv::Size_" }
%"class.cv::Size_" = type { i32, i32 }
%"class.cv::_OutputArray" = type { %"class.cv::_InputArray" }
%"class.cv::HomographyDecomposition::HomographyDecomp" = type { ptr, %"class.cv::Matx" }
%"struct.cv::Matx_ScaleOp" = type { i8 }

; Function Attrs: inlinehint mustprogress nounwind uwtable
define internal noundef double @_ZN2cvL13saturate_castIdEET_d(double noundef %0) #7 {
  %2 = alloca double, align 8
  store double %0, ptr %2, align 8, !tbaa !20
  %3 = load double, ptr %2, align 8, !tbaa !20
  ret double %3
}

; Function Attrs: inlinehint mustprogress uwtable
define linkonce_odr hidden void @_ZN2cv4MatxIdLi3ELi3EEC2IdEERKS1_T_NS_12Matx_ScaleOpE(ptr noundef nonnull align 8 dereferenceable(72) %0, ptr noundef nonnull align 8 dereferenceable(72) %1, double noundef %2, ptr noundef %3) unnamed_addr #5 comdat align 2 {
  %5 = alloca ptr, align 8
  %6 = alloca ptr, align 8
  %7 = alloca double, align 8
  %8 = alloca ptr, align 8
  %9 = alloca i32, align 4
  store ptr %0, ptr %5, align 8, !tbaa !8
  store ptr %1, ptr %6, align 8, !tbaa !8
  store double %2, ptr %7, align 8, !tbaa !20
  store ptr %3, ptr %8, align 8, !tbaa !203
  %10 = load ptr, ptr %5, align 8
  call void @llvm.lifetime.start.p0(i64 4, ptr %9) #3
  store i32 0, ptr %9, align 4, !tbaa !10
  br label %11

11:                                               ; preds = %29, %4
  %12 = load i32, ptr %9, align 4, !tbaa !10
  %13 = icmp slt i32 %12, 9
  br i1 %13, label %15, label %14

14:                                               ; preds = %11
  call void @llvm.lifetime.end.p0(i64 4, ptr %9) #3
  br label %32

15:                                               ; preds = %11
  %16 = load ptr, ptr %6, align 8, !tbaa !8
  %17 = getelementptr inbounds nuw %"class.cv::Matx", ptr %16, i32 0, i32 0
  %18 = load i32, ptr %9, align 4, !tbaa !10
  %19 = sext i32 %18 to i64
  %20 = getelementptr inbounds [9 x double], ptr %17, i64 0, i64 %19
  %21 = load double, ptr %20, align 8, !tbaa !20
  %22 = load double, ptr %7, align 8, !tbaa !20
  %23 = fmul double %21, %22
  %24 = call noundef double @_ZN2cvL13saturate_castIdEET_d(double noundef %23)
  %25 = getelementptr inbounds nuw %"class.cv::Matx", ptr %10, i32 0, i32 0
  %26 = load i32, ptr %9, align 4, !tbaa !10
  %27 = sext i32 %26 to i64
  %28 = getelementptr inbounds [9 x double], ptr %25, i64 0, i64 %27
  store double %24, ptr %28, align 8, !tbaa !20
  br label %29

29:                                               ; preds = %15
  %30 = load i32, ptr %9, align 4, !tbaa !10
  %31 = add nsw i32 %30, 1
  store i32 %31, ptr %9, align 4, !tbaa !10
  br label %11, !llvm.loop !205

32:                                               ; preds = %14
  ret void
}

; Function Attrs: mustprogress nounwind uwtable
define linkonce_odr hidden void @_ZN2cv12Matx_ScaleOpC2Ev(ptr noundef nonnull align 1 dereferenceable(1) %0) unnamed_addr #10 comdat align 2 {
  %2 = alloca ptr, align 8
  store ptr %0, ptr %2, align 8, !tbaa !203
  ret void
}

; Function Attrs: inlinehint mustprogress nounwind uwtable
define linkonce_odr hidden noundef zeroext i1 @_ZNK2cv3Mat12isContinuousEv(ptr noundef nonnull align 8 dereferenceable(96) %0) #7 comdat align 2 {
  %2 = alloca ptr, align 8
  store ptr %0, ptr %2, align 8, !tbaa !26
  %3 = load ptr, ptr %2, align 8
  %4 = getelementptr inbounds nuw %"class.cv::Mat", ptr %3, i32 0, i32 0
  %5 = load i32, ptr %4, align 8, !tbaa !61
  %6 = and i32 %5, 16384
  %7 = icmp ne i32 %6, 0
  ret i1 %7
}

; Function Attrs: inlinehint mustprogress nounwind uwtable
define linkonce_odr hidden void @_ZN2cv11_InputArray4initEiPKv(ptr noundef nonnull align 8 dereferenceable(24) %0, i32 noundef %1, ptr noundef %2) #7 comdat align 2 {
  %4 = alloca ptr, align 8
  %5 = alloca i32, align 4
  %6 = alloca ptr, align 8
  store ptr %0, ptr %4, align 8, !tbaa !22
  store i32 %1, ptr %5, align 4, !tbaa !10
  store ptr %2, ptr %6, align 8, !tbaa !138
  %7 = load ptr, ptr %4, align 8
  %8 = load i32, ptr %5, align 4, !tbaa !10
  %9 = getelementptr inbounds nuw %"class.cv::_InputArray", ptr %7, i32 0, i32 0
  store i32 %8, ptr %9, align 8, !tbaa !139
  %10 = load ptr, ptr %6, align 8, !tbaa !138
  %11 = getelementptr inbounds nuw %"class.cv::_InputArray", ptr %7, i32 0, i32 1
  store ptr %10, ptr %11, align 8, !tbaa !90
  ret void
}

; Function Attrs: inlinehint mustprogress uwtable
define linkonce_odr hidden void @_ZN2cv11_InputArrayC2Ev(ptr noundef nonnull align 8 dereferenceable(24) %0) unnamed_addr #5 comdat align 2 {
  %2 = alloca ptr, align 8
  store ptr %0, ptr %2, align 8, !tbaa !22
  %3 = load ptr, ptr %2, align 8
  %4 = getelementptr inbounds nuw %"class.cv::_InputArray", ptr %3, i32 0, i32 2
  call void @_ZN2cv5Size_IiEC2Ev(ptr noundef nonnull align 4 dereferenceable(8) %4)
  call void @_ZN2cv11_InputArray4initEiPKv(ptr noundef nonnull align 8 dereferenceable(24) %3, i32 noundef 0, ptr noundef null)
  ret void
}

; Function Attrs: inlinehint mustprogress nounwind uwtable
define linkonce_odr hidden void @_ZN2cv11_InputArray4initEiPKvNS_5Size_IiEE(ptr noundef nonnull align 8 dereferenceable(24) %0, i32 noundef %1, ptr noundef %2, i64 %3) #7 comdat align 2 {
  %5 = alloca %"class.cv::Size_", align 4
  %6 = alloca ptr, align 8
  %7 = alloca i32, align 4
  %8 = alloca ptr, align 8
  store i64 %3, ptr %5, align 4
  store ptr %0, ptr %6, align 8, !tbaa !22
  store i32 %1, ptr %7, align 4, !tbaa !10
  store ptr %2, ptr %8, align 8, !tbaa !138
  %9 = load ptr, ptr %6, align 8
  %10 = load i32, ptr %7, align 4, !tbaa !10
  %11 = getelementptr inbounds nuw %"class.cv::_InputArray", ptr %9, i32 0, i32 0
  store i32 %10, ptr %11, align 8, !tbaa !139
  %12 = load ptr, ptr %8, align 8, !tbaa !138
  %13 = getelementptr inbounds nuw %"class.cv::_InputArray", ptr %9, i32 0, i32 1
  store ptr %12, ptr %13, align 8, !tbaa !90
  %14 = getelementptr inbounds nuw %"class.cv::_InputArray", ptr %9, i32 0, i32 2
  call void @llvm.memcpy.p0.p0.i64(ptr align 8 %14, ptr align 4 %5, i64 8, i1 false), !tbaa.struct !202
  ret void
}

; Function Attrs: inlinehint mustprogress nounwind uwtable
define linkonce_odr hidden void @_ZN2cv5Size_IiEC2Eii(ptr noundef nonnull align 4 dereferenceable(8) %0, i32 noundef %1, i32 noundef %2) unnamed_addr #7 comdat align 2 {
  %4 = alloca ptr, align 8
  %5 = alloca i32, align 4
  %6 = alloca i32, align 4
  store ptr %0, ptr %4, align 8, !tbaa !140
  store i32 %1, ptr %5, align 4, !tbaa !10
  store i32 %2, ptr %6, align 4, !tbaa !10
  %7 = load ptr, ptr %4, align 8
  %8 = getelementptr inbounds nuw %"class.cv::Size_", ptr %7, i32 0, i32 0
  %9 = load i32, ptr %5, align 4, !tbaa !10
  store i32 %9, ptr %8, align 4, !tbaa !142
  %10 = getelementptr inbounds nuw %"class.cv::Size_", ptr %7, i32 0, i32 1
  %11 = load i32, ptr %6, align 4, !tbaa !10
  store i32 %11, ptr %10, align 4, !tbaa !143
  ret void
}

; Function Attrs: inlinehint mustprogress nounwind uwtable
define linkonce_odr hidden void @_ZN2cv5Size_IiEC2Ev(ptr noundef nonnull align 4 dereferenceable(8) %0) unnamed_addr #7 comdat align 2 {
  %2 = alloca ptr, align 8
  store ptr %0, ptr %2, align 8, !tbaa !140
  %3 = load ptr, ptr %2, align 8
  %4 = getelementptr inbounds nuw %"class.cv::Size_", ptr %3, i32 0, i32 0
  store i32 0, ptr %4, align 4, !tbaa !142
  %5 = getelementptr inbounds nuw %"class.cv::Size_", ptr %3, i32 0, i32 1
  store i32 0, ptr %5, align 4, !tbaa !143
  ret void
}

; Function Attrs: inlinehint mustprogress uwtable
define internal void @_ZN2cvmlIdLi3ELi3EEENS_4MatxIT_XT0_EXT1_EEERKS3_d(ptr dead_on_unwind noalias writable sret(%"class.cv::Matx") align 8 %0, ptr noundef nonnull align 8 dereferenceable(72) %1, double noundef %2) #5 {
  %4 = alloca ptr, align 8
  %5 = alloca double, align 8
  %6 = alloca %"struct.cv::Matx_ScaleOp", align 1
  store ptr %1, ptr %4, align 8, !tbaa !8
  store double %2, ptr %5, align 8, !tbaa !20
  %7 = load ptr, ptr %4, align 8, !tbaa !8
  %8 = load double, ptr %5, align 8, !tbaa !20
  call void @_ZN2cv12Matx_ScaleOpC2Ev(ptr noundef nonnull align 1 dereferenceable(1) %6)
  call void @_ZN2cv4MatxIdLi3ELi3EEC2IdEERKS1_T_NS_12Matx_ScaleOpE(ptr noundef nonnull align 8 dereferenceable(72) %0, ptr noundef nonnull align 8 dereferenceable(72) %7, double noundef %8, ptr noundef %6)
  ret void
}

; Function Attrs: inlinehint mustprogress uwtable
define linkonce_odr hidden noundef nonnull align 8 dereferenceable(8) ptr @_ZN2cv3Mat2atIdEERT_i(ptr noundef nonnull align 8 dereferenceable(96) %0, i32 noundef %1) #5 comdat align 2 {
  %3 = alloca ptr, align 8
  %4 = alloca ptr, align 8
  %5 = alloca i32, align 4
  %6 = alloca i32, align 4
  %7 = alloca i32, align 4
  store ptr %0, ptr %4, align 8, !tbaa !26
  store i32 %1, ptr %5, align 4, !tbaa !10
  %8 = load ptr, ptr %4, align 8
  %9 = call noundef zeroext i1 @_ZNK2cv3Mat12isContinuousEv(ptr noundef nonnull align 8 dereferenceable(96) %8)
  br i1 %9, label %17, label %10

10:                                               ; preds = %2
  %11 = getelementptr inbounds nuw %"class.cv::Mat", ptr %8, i32 0, i32 10
  %12 = getelementptr inbounds nuw %"struct.cv::MatSize", ptr %11, i32 0, i32 0
  %13 = load ptr, ptr %12, align 8, !tbaa !28
  %14 = getelementptr inbounds i32, ptr %13, i64 0
  %15 = load i32, ptr %14, align 4, !tbaa !10
  %16 = icmp eq i32 %15, 1
  br i1 %16, label %17, label %23

17:                                               ; preds = %10, %2
  %18 = getelementptr inbounds nuw %"class.cv::Mat", ptr %8, i32 0, i32 4
  %19 = load ptr, ptr %18, align 8, !tbaa !37
  %20 = load i32, ptr %5, align 4, !tbaa !10
  %21 = sext i32 %20 to i64
  %22 = getelementptr inbounds double, ptr %19, i64 %21
  store ptr %22, ptr %3, align 8
  br label %67

23:                                               ; preds = %10
  %24 = getelementptr inbounds nuw %"class.cv::Mat", ptr %8, i32 0, i32 10
  %25 = getelementptr inbounds nuw %"struct.cv::MatSize", ptr %24, i32 0, i32 0
  %26 = load ptr, ptr %25, align 8, !tbaa !28
  %27 = getelementptr inbounds i32, ptr %26, i64 1
  %28 = load i32, ptr %27, align 4, !tbaa !10
  %29 = icmp eq i32 %28, 1
  br i1 %29, label %30, label %42

30:                                               ; preds = %23
  %31 = getelementptr inbounds nuw %"class.cv::Mat", ptr %8, i32 0, i32 4
  %32 = load ptr, ptr %31, align 8, !tbaa !37
  %33 = getelementptr inbounds nuw %"class.cv::Mat", ptr %8, i32 0, i32 11
  %34 = getelementptr inbounds nuw %"struct.cv::MatStep", ptr %33, i32 0, i32 0
  %35 = load ptr, ptr %34, align 8, !tbaa !38
  %36 = getelementptr inbounds i64, ptr %35, i64 0
  %37 = load i64, ptr %36, align 8, !tbaa !39
  %38 = load i32, ptr %5, align 4, !tbaa !10
  %39 = sext i32 %38 to i64
  %40 = mul i64 %37, %39
  %41 = getelementptr inbounds nuw i8, ptr %32, i64 %40
  store ptr %41, ptr %3, align 8
  br label %67

42:                                               ; preds = %23
  call void @llvm.lifetime.start.p0(i64 4, ptr %6) #3
  %43 = load i32, ptr %5, align 4, !tbaa !10
  %44 = getelementptr inbounds nuw %"class.cv::Mat", ptr %8, i32 0, i32 3
  %45 = load i32, ptr %44, align 4, !tbaa !41
  %46 = sdiv i32 %43, %45
  store i32 %46, ptr %6, align 4, !tbaa !10
  call void @llvm.lifetime.start.p0(i64 4, ptr %7) #3
  %47 = load i32, ptr %5, align 4, !tbaa !10
  %48 = load i32, ptr %6, align 4, !tbaa !10
  %49 = getelementptr inbounds nuw %"class.cv::Mat", ptr %8, i32 0, i32 3
  %50 = load i32, ptr %49, align 4, !tbaa !41
  %51 = mul nsw i32 %48, %50
  %52 = sub nsw i32 %47, %51
  store i32 %52, ptr %7, align 4, !tbaa !10
  %53 = getelementptr inbounds nuw %"class.cv::Mat", ptr %8, i32 0, i32 4
  %54 = load ptr, ptr %53, align 8, !tbaa !37
  %55 = getelementptr inbounds nuw %"class.cv::Mat", ptr %8, i32 0, i32 11
  %56 = getelementptr inbounds nuw %"struct.cv::MatStep", ptr %55, i32 0, i32 0
  %57 = load ptr, ptr %56, align 8, !tbaa !38
  %58 = getelementptr inbounds i64, ptr %57, i64 0
  %59 = load i64, ptr %58, align 8, !tbaa !39
  %60 = load i32, ptr %6, align 4, !tbaa !10
  %61 = sext i32 %60 to i64
  %62 = mul i64 %59, %61
  %63 = getelementptr inbounds nuw i8, ptr %54, i64 %62
  %64 = load i32, ptr %7, align 4, !tbaa !10
  %65 = sext i32 %64 to i64
  %66 = getelementptr inbounds double, ptr %63, i64 %65
  store ptr %66, ptr %3, align 8
  call void @llvm.lifetime.end.p0(i64 4, ptr %7) #3
  call void @llvm.lifetime.end.p0(i64 4, ptr %6) #3
  br label %67

67:                                               ; preds = %42, %30, %17
  %68 = load ptr, ptr %3, align 8
  ret ptr %68
}

; Function Attrs: inlinehint mustprogress nounwind uwtable
define linkonce_odr hidden void @_ZN2cv11_InputArrayD2Ev(ptr noundef nonnull align 8 dereferenceable(24) %0) unnamed_addr #7 comdat align 2 {
  %2 = alloca ptr, align 8
  store ptr %0, ptr %2, align 8, !tbaa !22
  ret void
}

; Function Attrs: inlinehint mustprogress uwtable
define linkonce_odr hidden void @_ZN2cv12_OutputArrayC2ERNS_3MatE(ptr noundef nonnull align 8 dereferenceable(24) %0, ptr noundef nonnull align 8 dereferenceable(96) %1) unnamed_addr #5 comdat align 2 personality ptr @__gxx_personality_v0 {
  %3 = alloca ptr, align 8
  %4 = alloca ptr, align 8
  %5 = alloca ptr, align 8
  %6 = alloca i32, align 4
  store ptr %0, ptr %3, align 8, !tbaa !24
  store ptr %1, ptr %4, align 8, !tbaa !26
  %7 = load ptr, ptr %3, align 8
  call void @_ZN2cv11_InputArrayC2Ev(ptr noundef nonnull align 8 dereferenceable(24) %7)
  %8 = load ptr, ptr %4, align 8, !tbaa !26
  invoke void @_ZN2cv11_InputArray4initEiPKv(ptr noundef nonnull align 8 dereferenceable(24) %7, i32 noundef 33619968, ptr noundef %8)
          to label %9 unwind label %10

9:                                                ; preds = %2
  ret void

10:                                               ; preds = %2
  %11 = landingpad { ptr, i32 }
          cleanup
  %12 = extractvalue { ptr, i32 } %11, 0
  store ptr %12, ptr %5, align 8
  %13 = extractvalue { ptr, i32 } %11, 1
  store i32 %13, ptr %6, align 4
  call void @_ZN2cv11_InputArrayD2Ev(ptr noundef nonnull align 8 dereferenceable(24) %7) #3
  br label %14

14:                                               ; preds = %10
  %15 = load ptr, ptr %5, align 8
  %16 = load i32, ptr %6, align 4
  %17 = insertvalue { ptr, i32 } poison, ptr %15, 0
  %18 = insertvalue { ptr, i32 } %17, i32 %16, 1
  resume { ptr, i32 } %18
}

; Function Attrs: inlinehint mustprogress uwtable
define linkonce_odr hidden void @_ZN2cv11_InputArrayC2IdLi3ELi3EEERKNS_4MatxIT_XT0_EXT1_EEE(ptr noundef nonnull align 8 dereferenceable(24) %0, ptr noundef nonnull align 8 dereferenceable(72) %1) unnamed_addr #5 comdat align 2 {
  %3 = alloca ptr, align 8
  %4 = alloca ptr, align 8
  %5 = alloca %"class.cv::Size_", align 4
  store ptr %0, ptr %3, align 8, !tbaa !22
  store ptr %1, ptr %4, align 8, !tbaa !8
  %6 = load ptr, ptr %3, align 8
  %7 = getelementptr inbounds nuw %"class.cv::_InputArray", ptr %6, i32 0, i32 2
  call void @_ZN2cv5Size_IiEC2Ev(ptr noundef nonnull align 4 dereferenceable(8) %7)
  %8 = load ptr, ptr %4, align 8, !tbaa !8
  call void @_ZN2cv5Size_IiEC2Eii(ptr noundef nonnull align 4 dereferenceable(8) %5, i32 noundef 3, i32 noundef 3)
  %9 = load i64, ptr %5, align 4
  call void @_ZN2cv11_InputArray4initEiPKvNS_5Size_IiEE(ptr noundef nonnull align 8 dereferenceable(24) %6, i32 noundef -1056833530, ptr noundef %8, i64 %9)
  ret void
}

; Function Attrs: mustprogress uwtable
define hidden void @_ZN2cv23HomographyDecomposition16HomographyDecomp11removeScaleEv(ptr noundef nonnull align 8 dereferenceable(80) %0) #4 align 2 personality ptr @__gxx_personality_v0 {
  %2 = alloca ptr, align 8
  %3 = alloca %"class.cv::Mat", align 8
  %4 = alloca %"class.cv::_InputArray", align 8
  %5 = alloca ptr, align 8
  %6 = alloca i32, align 4
  %7 = alloca %"class.cv::_OutputArray", align 8
  %8 = alloca %"class.cv::Matx", align 8
  store ptr %0, ptr %2, align 8, !tbaa !3
  %9 = load ptr, ptr %2, align 8
  call void @llvm.lifetime.start.p0(i64 96, ptr %3) #3
  call void @_ZN2cv3MatC1Ev(ptr noundef nonnull align 8 dereferenceable(96) %3) #3
  call void @llvm.lifetime.start.p0(i64 24, ptr %4) #3
  %10 = getelementptr inbounds nuw %"class.cv::HomographyDecomposition::HomographyDecomp", ptr %9, i32 0, i32 1
  invoke void @_ZN2cv11_InputArrayC2IdLi3ELi3EEERKNS_4MatxIT_XT0_EXT1_EEE(ptr noundef nonnull align 8 dereferenceable(24) %4, ptr noundef nonnull align 8 dereferenceable(72) %10)
          to label %11 unwind label %21

11:                                               ; preds = %1
  call void @llvm.lifetime.start.p0(i64 24, ptr %7) #3
  invoke void @_ZN2cv12_OutputArrayC2ERNS_3MatE(ptr noundef nonnull align 8 dereferenceable(24) %7, ptr noundef nonnull align 8 dereferenceable(96) %3)
          to label %12 unwind label %25

12:                                               ; preds = %11
  invoke void @_ZN2cv3SVD7computeERKNS_11_InputArrayERKNS_12_OutputArrayEi(ptr noundef nonnull align 8 dereferenceable(24) %4, ptr noundef nonnull align 8 dereferenceable(24) %7, i32 noundef 0)
          to label %13 unwind label %29

13:                                               ; preds = %12
  call void @_ZN2cv11_InputArrayD2Ev(ptr noundef nonnull align 8 dereferenceable(24) %7) #3
  call void @llvm.lifetime.end.p0(i64 24, ptr %7) #3
  call void @_ZN2cv11_InputArrayD2Ev(ptr noundef nonnull align 8 dereferenceable(24) %4) #3
  call void @llvm.lifetime.end.p0(i64 24, ptr %4) #3
  call void @llvm.lifetime.start.p0(i64 72, ptr %8) #3
  %14 = getelementptr inbounds nuw %"class.cv::HomographyDecomposition::HomographyDecomp", ptr %9, i32 0, i32 1
  %15 = invoke noundef nonnull align 8 dereferenceable(8) ptr @_ZN2cv3Mat2atIdEERT_i(ptr noundef nonnull align 8 dereferenceable(96) %3, i32 noundef 1)
          to label %16 unwind label %35

16:                                               ; preds = %13
  %17 = load double, ptr %15, align 8, !tbaa !20
  %18 = fdiv double 1.000000e+00, %17
  invoke void @_ZN2cvmlIdLi3ELi3EEENS_4MatxIT_XT0_EXT1_EEERKS3_d(ptr dead_on_unwind writable sret(%"class.cv::Matx") align 8 %8, ptr noundef nonnull align 8 dereferenceable(72) %14, double noundef %18)
          to label %19 unwind label %35

19:                                               ; preds = %16
  %20 = getelementptr inbounds nuw %"class.cv::HomographyDecomposition::HomographyDecomp", ptr %9, i32 0, i32 1
  call void @llvm.memcpy.p0.p0.i64(ptr align 8 %20, ptr align 8 %8, i64 72, i1 false), !tbaa.struct !18
  call void @llvm.lifetime.end.p0(i64 72, ptr %8) #3
  call void @_ZN2cv3MatD1Ev(ptr noundef nonnull align 8 dereferenceable(96) %3) #3
  call void @llvm.lifetime.end.p0(i64 96, ptr %3) #3
  ret void

21:                                               ; preds = %1
  %22 = landingpad { ptr, i32 }
          cleanup
  %23 = extractvalue { ptr, i32 } %22, 0
  store ptr %23, ptr %5, align 8
  %24 = extractvalue { ptr, i32 } %22, 1
  store i32 %24, ptr %6, align 4
  br label %34

25:                                               ; preds = %11
  %26 = landingpad { ptr, i32 }
          cleanup
  %27 = extractvalue { ptr, i32 } %26, 0
  store ptr %27, ptr %5, align 8
  %28 = extractvalue { ptr, i32 } %26, 1
  store i32 %28, ptr %6, align 4
  br label %33

29:                                               ; preds = %12
  %30 = landingpad { ptr, i32 }
          cleanup
  %31 = extractvalue { ptr, i32 } %30, 0
  store ptr %31, ptr %5, align 8
  %32 = extractvalue { ptr, i32 } %30, 1
  store i32 %32, ptr %6, align 4
  call void @_ZN2cv11_InputArrayD2Ev(ptr noundef nonnull align 8 dereferenceable(24) %7) #3
  br label %33

33:                                               ; preds = %29, %25
  call void @llvm.lifetime.end.p0(i64 24, ptr %7) #3
  call void @_ZN2cv11_InputArrayD2Ev(ptr noundef nonnull align 8 dereferenceable(24) %4) #3
  br label %34

34:                                               ; preds = %33, %21
  call void @llvm.lifetime.end.p0(i64 24, ptr %4) #3
  br label %39

35:                                               ; preds = %16, %13
  %36 = landingpad { ptr, i32 }
          cleanup
  %37 = extractvalue { ptr, i32 } %36, 0
  store ptr %37, ptr %5, align 8
  %38 = extractvalue { ptr, i32 } %36, 1
  store i32 %38, ptr %6, align 4
  call void @llvm.lifetime.end.p0(i64 72, ptr %8) #3
  br label %39

39:                                               ; preds = %35, %34
  call void @_ZN2cv3MatD1Ev(ptr noundef nonnull align 8 dereferenceable(96) %3) #3
  call void @llvm.lifetime.end.p0(i64 96, ptr %3) #3
  br label %40

40:                                               ; preds = %39
  %41 = load ptr, ptr %5, align 8
  %42 = load i32, ptr %6, align 4
  %43 = insertvalue { ptr, i32 } poison, ptr %41, 0
  %44 = insertvalue { ptr, i32 } %43, i32 %42, 1
  resume { ptr, i32 } %44
}