; Function Attrs: mustprogress uwtable
define hidden void @_ZN2cv23HomographyDecomposition16HomographyDecomp11removeScaleEv(ptr noundef nonnull align 8 dereferenceable(80) %0) local_unnamed_addr #3 align 2 personality ptr @__gxx_personality_v0 {
  %2 = alloca %"class.cv::Mat", align 8
  %3 = alloca %"class.cv::_InputArray", align 8
  %4 = alloca %"class.cv::_OutputArray", align 8
  %5 = alloca %"class.cv::Matx", align 8
  call void @llvm.lifetime.start.p0(i64 96, ptr nonnull %2) #25
  call void @_ZN2cv3MatC1Ev(ptr noundef nonnull align 8 dereferenceable(96) %2) #25
  call void @llvm.lifetime.start.p0(i64 24, ptr nonnull %3) #25
  %6 = getelementptr inbounds nuw i8, ptr %0, i64 8
  %7 = getelementptr inbounds nuw i8, ptr %3, i64 16
  store i32 -1056833530, ptr %3, align 8, !tbaa !25
  %8 = getelementptr inbounds nuw i8, ptr %3, i64 8
  store ptr %6, ptr %8, align 8, !tbaa !30
  store i64 12884901891, ptr %7, align 8
  call void @llvm.lifetime.start.p0(i64 24, ptr nonnull %4) #25
  %9 = getelementptr inbounds nuw i8, ptr %4, i64 8
  %10 = getelementptr inbounds nuw i8, ptr %4, i64 16
  store i64 0, ptr %10, align 8
  store i32 33619968, ptr %4, align 8, !tbaa !25
  store ptr %2, ptr %9, align 8, !tbaa !30
  invoke void @_ZN2cv3SVD7computeERKNS_11_InputArrayERKNS_12_OutputArrayEi(ptr noundef nonnull align 8 dereferenceable(24) %3, ptr noundef nonnull align 8 dereferenceable(24) %4, i32 noundef 0)
          to label %11 unwind label %59

11:                                               ; preds = %1
  call void @llvm.lifetime.end.p0(i64 24, ptr nonnull %4) #25
  call void @llvm.lifetime.end.p0(i64 24, ptr nonnull %3) #25
  call void @llvm.lifetime.start.p0(i64 72, ptr nonnull %5) #25
  %12 = load i32, ptr %2, align 8, !tbaa !31
  %13 = and i32 %12, 16384
  %.not.i = icmp eq i32 %13, 0
  br i1 %.not.i, label %14, label %19

14:                                               ; preds = %11
  %15 = getelementptr inbounds nuw i8, ptr %2, i64 64
  %16 = load ptr, ptr %15, align 8, !tbaa !40
  %17 = load i32, ptr %16, align 4, !tbaa !41
  %18 = icmp eq i32 %17, 1
  br i1 %18, label %19, label %23

19:                                               ; preds = %14, %11
  %20 = getelementptr inbounds nuw i8, ptr %2, i64 16
  %21 = load ptr, ptr %20, align 8, !tbaa !42
  %22 = getelementptr inbounds nuw i8, ptr %21, i64 8
  br label %_ZN2cv3Mat2atIdEERT_i.exit

23:                                               ; preds = %14
  %24 = getelementptr inbounds nuw i8, ptr %16, i64 4
  %25 = load i32, ptr %24, align 4, !tbaa !41
  %26 = icmp eq i32 %25, 1
  br i1 %26, label %27, label %34

27:                                               ; preds = %23
  %28 = getelementptr inbounds nuw i8, ptr %2, i64 16
  %29 = load ptr, ptr %28, align 8, !tbaa !42
  %30 = getelementptr inbounds nuw i8, ptr %2, i64 72
  %31 = load ptr, ptr %30, align 8, !tbaa !43
  %32 = load i64, ptr %31, align 8, !tbaa !44
  %33 = getelementptr inbounds nuw i8, ptr %29, i64 %32
  br label %_ZN2cv3Mat2atIdEERT_i.exit

34:                                               ; preds = %23
  %35 = getelementptr inbounds nuw i8, ptr %2, i64 12
  %36 = load i32, ptr %35, align 4, !tbaa !46
  %.fr = freeze i32 %36
  %37 = add i32 %.fr, 1
  %38 = icmp ult i32 %37, 3
  %39 = select i1 %38, i32 %.fr, i32 0
  %40 = mul nsw i32 %39, %.fr
  %41 = sub nsw i32 1, %40
  %42 = getelementptr inbounds nuw i8, ptr %2, i64 16
  %43 = load ptr, ptr %42, align 8, !tbaa !42
  %44 = getelementptr inbounds nuw i8, ptr %2, i64 72
  %45 = load ptr, ptr %44, align 8, !tbaa !43
  %46 = load i64, ptr %45, align 8, !tbaa !44
  %47 = sext i32 %39 to i64
  %48 = mul i64 %46, %47
  %49 = getelementptr inbounds nuw i8, ptr %43, i64 %48
  %50 = sext i32 %41 to i64
  %51 = getelementptr inbounds double, ptr %49, i64 %50
  br label %_ZN2cv3Mat2atIdEERT_i.exit

_ZN2cv3Mat2atIdEERT_i.exit:                       ; preds = %34, %27, %19
  %.0.i = phi ptr [ %22, %19 ], [ %33, %27 ], [ %51, %34 ]
  %52 = load double, ptr %.0.i, align 8, !tbaa !6
  %53 = fdiv double 1.000000e+00, %52
  call void @llvm.experimental.noalias.scope.decl(metadata !47)
  br label %54

54:                                               ; preds = %54, %_ZN2cv3Mat2atIdEERT_i.exit
  %indvars.iv.i.i = phi i64 [ 0, %_ZN2cv3Mat2atIdEERT_i.exit ], [ %indvars.iv.next.i.i, %54 ]
  %55 = getelementptr inbounds nuw [9 x double], ptr %6, i64 0, i64 %indvars.iv.i.i
  %56 = load double, ptr %55, align 8, !tbaa !6, !noalias !47
  %57 = fmul double %53, %56
  %58 = getelementptr inbounds nuw [9 x double], ptr %5, i64 0, i64 %indvars.iv.i.i
  store double %57, ptr %58, align 8, !tbaa !6, !alias.scope !47
  %indvars.iv.next.i.i = add nuw nsw i64 %indvars.iv.i.i, 1
  %exitcond.not.i.i = icmp eq i64 %indvars.iv.next.i.i, 9
  br i1 %exitcond.not.i.i, label %_ZN2cvmlIdLi3ELi3EEENS_4MatxIT_XT0_EXT1_EEERKS3_d.exit, label %54, !llvm.loop !50

_ZN2cvmlIdLi3ELi3EEENS_4MatxIT_XT0_EXT1_EEERKS3_d.exit: ; preds = %54
  call void @llvm.memcpy.p0.p0.i64(ptr noundef nonnull align 8 dereferenceable(72) %6, ptr noundef nonnull align 8 dereferenceable(72) %5, i64 72, i1 false), !tbaa.struct !10
  call void @llvm.lifetime.end.p0(i64 72, ptr nonnull %5) #25
  call void @_ZN2cv3MatD1Ev(ptr noundef nonnull align 8 dereferenceable(96) %2) #25
  call void @llvm.lifetime.end.p0(i64 96, ptr nonnull %2) #25
  ret void

59:                                               ; preds = %1
  %60 = landingpad { ptr, i32 }
          cleanup
  call void @llvm.lifetime.end.p0(i64 24, ptr nonnull %4) #25
  call void @llvm.lifetime.end.p0(i64 24, ptr nonnull %3) #25
  call void @_ZN2cv3MatD1Ev(ptr noundef nonnull align 8 dereferenceable(96) %2) #25
  call void @llvm.lifetime.end.p0(i64 96, ptr nonnull %2) #25
  resume { ptr, i32 } %60
}